target datalayout = "e-m:e-p270:32:32-p271:32:32-p272:64:64-i64:64-i128:128-f80:128-n8:16:32:64-S128"
target triple = "x86_64-unknown-linux-gnu"

%"class.icu_75::MaybeStackArray.0" = type { ptr, i32, i8, [3 x ptr] }
%"class.icu_75::numparse::impl::NumberParseMatcher" = type { ptr }
%"class.icu_75::numparse::impl::AffixPatternMatcher" = type { %"class.icu_75::numparse::impl::ArraySeriesMatcher.base", [4 x i8], %"class.icu_75::numparse::impl::CompactUnicodeString" }
%"class.icu_75::numparse::impl::ArraySeriesMatcher.base" = type <{ %"class.icu_75::numparse::impl::SeriesMatcher", %"class.icu_75::MaybeStackArray.0", i32 }>
%"class.icu_75::numparse::impl::SeriesMatcher" = type { %"class.icu_75::numparse::impl::CompositionMatcher" }
%"class.icu_75::numparse::impl::CompositionMatcher" = type { %"class.icu_75::numparse::impl::NumberParseMatcher" }
%"class.icu_75::numparse::impl::CompactUnicodeString" = type { %"class.icu_75::MaybeStackArray.3" }
%"class.icu_75::MaybeStackArray.3" = type <{ ptr, i32, i8, i8, [4 x i16], [2 x i8] }>

; Function Attrs: mustprogress uwtable
define void @_ZN6icu_758numparse4impl19AffixPatternMatcherC2ERNS_15MaybeStackArrayIPKNS1_18NumberParseMatcherELi3EEEiRKNS_13UnicodeStringER10UErrorCode(ptr noundef nonnull align 8 dereferenceable(80) %this, ptr noundef nonnull align 8 dereferenceable(40) %matchers, i32 noundef %matchersLen, ptr noundef nonnull align 8 dereferenceable(64) %pattern, ptr noundef nonnull align 4 dereferenceable(4) %status) unnamed_addr #1 align 2 personality ptr @__gxx_personality_v0 {
entry:
  %this.addr = alloca ptr, align 8
  %matchers.addr = alloca ptr, align 8
  %matchersLen.addr = alloca i32, align 4
  %pattern.addr = alloca ptr, align 8
  %status.addr = alloca ptr, align 8
  %exn.slot = alloca ptr, align 8
  %ehselector.slot = alloca i32, align 4
  store ptr %this, ptr %this.addr, align 8
  store ptr %matchers, ptr %matchers.addr, align 8
  store i32 %matchersLen, ptr %matchersLen.addr, align 4
  store ptr %pattern, ptr %pattern.addr, align 8
  store ptr %status, ptr %status.addr, align 8
  %this1 = load ptr, ptr %this.addr, align 8
  %0 = load ptr, ptr %matchers.addr, align 8
  %1 = load i32, ptr %matchersLen.addr, align 4
  call void @_ZN6icu_758numparse4impl18ArraySeriesMatcherC2ERNS_15MaybeStackArrayIPKNS1_18NumberParseMatcherELi3EEEi(ptr noundef nonnull align 8 dereferenceable(52) %this1, ptr noundef nonnull align 8 dereferenceable(40) %0, i32 noundef %1)
  store ptr getelementptr inbounds ({ [12 x ptr] }, ptr @_ZTVN6icu_758numparse4impl19AffixPatternMatcherE, i32 0, i32 0, i32 2), ptr %this1, align 8
  %fPattern = getelementptr inbounds %"class.icu_75::numparse::impl::AffixPatternMatcher", ptr %this1, i32 0, i32 2
  %2 = load ptr, ptr %pattern.addr, align 8
  %3 = load ptr, ptr %status.addr, align 8
  invoke void @_ZN6icu_758numparse4impl20CompactUnicodeStringILi4EEC2ERKNS_13UnicodeStringER10UErrorCode(ptr noundef nonnull align 8 dereferenceable(24) %fPattern, ptr noundef nonnull align 8 dereferenceable(64) %2, ptr noundef nonnull align 4 dereferenceable(4) %3)
          to label %invoke.cont unwind label %lpad

invoke.cont:                                      ; preds = %entry
  ret void

lpad:                                             ; preds = %entry
  %4 = landingpad { ptr, i32 }
          cleanup
  %5 = extractvalue { ptr, i32 } %4, 0
  store ptr %5, ptr %exn.slot, align 8
  %6 = extractvalue { ptr, i32 } %4, 1
  store i32 %6, ptr %ehselector.slot, align 4
  call void @_ZN6icu_758numparse4impl18ArraySeriesMatcherD2Ev(ptr noundef nonnull align 8 dereferenceable(52) %this1) #13
  br label %eh.resume

eh.resume:                                        ; preds = %lpad
  %exn = load ptr, ptr %exn.slot, align 8
  %sel = load i32, ptr %ehselector.slot, align 4
  %lpad.val = insertvalue { ptr, i32 } poison, ptr %exn, 0
  %lpad.val2 = insertvalue { ptr, i32 } %lpad.val, i32 %sel, 1
  resume { ptr, i32 } %lpad.val2
}