; Function Attrs: mustprogress uwtable
define void @_ZN6icu_758numparse4impl19AffixPatternMatcherC2ERNS_15MaybeStackArrayIPKNS1_18NumberParseMatcherELi3EEEiRKNS_13UnicodeStringER10UErrorCode(ptr noundef nonnull align 8 dereferenceable(80) %this, ptr noundef nonnull align 8 dereferenceable(40) %matchers, i32 noundef %matchersLen, ptr noundef nonnull align 8 dereferenceable(64) %pattern, ptr noundef nonnull align 4 dereferenceable(4) %status) unnamed_addr #1 align 2 personality ptr @__gxx_personality_v0 {
entry:
  tail call void @_ZN6icu_758numparse4impl18ArraySeriesMatcherC2ERNS_15MaybeStackArrayIPKNS1_18NumberParseMatcherELi3EEEi(ptr noundef nonnull align 8 dereferenceable(52) %this, ptr noundef nonnull align 8 dereferenceable(40) %matchers, i32 noundef %matchersLen)
  store ptr getelementptr inbounds ({ [12 x ptr] }, ptr @_ZTVN6icu_758numparse4impl19AffixPatternMatcherE, i64 0, i32 0, i64 2), ptr %this, align 8
  %fPattern = getelementptr inbounds i8, ptr %this, i64 56
  invoke void @_ZN6icu_758numparse4impl20CompactUnicodeStringILi4EEC2ERKNS_13UnicodeStringER10UErrorCode(ptr noundef nonnull align 8 dereferenceable(24) %fPattern, ptr noundef nonnull align 8 dereferenceable(64) %pattern, ptr noundef nonnull align 4 dereferenceable(4) %status)
          to label %invoke.cont unwind label %lpad

invoke.cont:                                      ; preds = %entry
  ret void

lpad:                                             ; preds = %entry
  %0 = landingpad { ptr, i32 }
          cleanup
  tail call void @_ZN6icu_758numparse4impl18ArraySeriesMatcherD2Ev(ptr noundef nonnull align 8 dereferenceable(52) %this) #16
  resume { ptr, i32 } %0
}